target datalayout = "e-m:e-p270:32:32-p271:32:32-p272:64:64-i64:64-i128:128-f80:128-n8:16:32:64-S128"
target triple = "x86_64-pc-linux-gnu"

%struct.job_record = type { i32, ptr, ptr, ptr, ptr, i16, i32, i32, i32, ptr, i32, ptr, ptr, i16, ptr, double, i64, ptr, ptr, ptr, ptr, ptr, ptr, i32, ptr, i32, i64, i64, i32, i32, ptr, i16, i64, i64, i8, i32, ptr, ptr, ptr, ptr, ptr, ptr, ptr, ptr, i32, ptr, ptr, i32, ptr, i32, ptr, i32, ptr, i32, ptr, ptr, ptr, ptr, ptr, ptr, i32, i16, i64, ptr, ptr, ptr, ptr, %struct.acct_policy_limit_set_t, i16, ptr, ptr, ptr, ptr, ptr, i32, ptr, ptr, ptr, ptr, ptr, i32, i32, ptr, ptr, ptr, i16, ptr, ptr, i8, ptr, ptr, i64, i64, i8, i32, i32, i8, i32, ptr, i32, i64, i32, ptr, ptr, ptr, i8, i16, i64, i32, ptr, ptr, ptr, ptr, ptr, i16, i32, ptr, ptr, ptr, ptr, i32, ptr, i32, i16, i64, ptr, i32, i32, ptr, i64, ptr, ptr, i64, i32, i32, i64, i32, i32, ptr, ptr, ptr, ptr, ptr, ptr, ptr, ptr, ptr, ptr, ptr, ptr, i32, ptr, i16, i16, i16, i16, ptr, i32, i32, i8, i64 }
%struct.acct_policy_limit_set_t = type { i16, i16, ptr }
%struct.slurmdb_qos_rec_t = type { i64, ptr, i32, i32, i32, i32, i32, i32, ptr, ptr, ptr, ptr, ptr, ptr, i32, double, i32, i32, i32, i32, i32, i32, ptr, ptr, ptr, ptr, ptr, ptr, ptr, ptr, ptr, ptr, ptr, ptr, ptr, ptr, i32, i32, ptr, ptr, ptr, ptr, ptr, i16, i32, i32, ptr, ptr, double, double }
%struct.slurmdb_assoc_rec = type { ptr, ptr, ptr, ptr, ptr, ptr, ptr, i32, i32, i32, i32, i32, ptr, ptr, ptr, ptr, ptr, ptr, i32, i32, i16, ptr, ptr, i32, i32, i32, ptr, ptr, ptr, ptr, ptr, ptr, ptr, ptr, i32, i32, ptr, i32, ptr, i32, ptr, i32, i32, ptr, ptr, ptr }
%struct.slurmdb_qos_usage_t = type { i32, ptr, ptr, ptr, ptr, i32, i32, ptr, ptr, double, double, i32, x86_fp80, ptr, ptr }
%struct.slurmdb_used_limits_t = type { i32, ptr, i32, i32, ptr, ptr, ptr, ptr, i32 }

; Function Attrs: nounwind uwtable
define internal void @_find_qos_grp_node_bitmap(ptr noundef %0, ptr noundef %1, ptr noundef %2, ptr noundef %3, ptr noundef %4, ptr noundef %5) #0 {
  %7 = alloca ptr, align 8
  %8 = alloca ptr, align 8
  %9 = alloca ptr, align 8
  %10 = alloca ptr, align 8
  %11 = alloca ptr, align 8
  %12 = alloca ptr, align 8
  %13 = alloca ptr, align 8
  %14 = alloca i32, align 4
  store ptr %0, ptr %7, align 8
  store ptr %1, ptr %8, align 8
  store ptr %2, ptr %9, align 8
  store ptr %3, ptr %10, align 8
  store ptr %4, ptr %11, align 8
  store ptr %5, ptr %12, align 8
  call void @llvm.lifetime.start.p0(i64 8, ptr %13) #8
  store ptr null, ptr %13, align 8
  %15 = load ptr, ptr %8, align 8
  %16 = icmp ne ptr %15, null
  br i1 %16, label %17, label %22

17:                                               ; preds = %6
  %18 = load ptr, ptr %8, align 8
  %19 = getelementptr inbounds nuw %struct.slurmdb_qos_rec_t, ptr %18, i32 0, i32 47
  %20 = load ptr, ptr %19, align 8
  %21 = icmp ne ptr %20, null
  br i1 %21, label %23, label %22

22:                                               ; preds = %17, %6
  store i32 1, ptr %14, align 4
  br label %150

23:                                               ; preds = %17
  %24 = load ptr, ptr %10, align 8
  %25 = load i8, ptr %24, align 1, !range !12, !noundef !13
  %26 = trunc i8 %25 to i1
  br i1 %26, label %50, label %27

27:                                               ; preds = %23
  %28 = load ptr, ptr %8, align 8
  %29 = getelementptr inbounds nuw %struct.slurmdb_qos_rec_t, ptr %28, i32 0, i32 47
  %30 = load ptr, ptr %29, align 8
  %31 = getelementptr inbounds nuw %struct.slurmdb_qos_usage_t, ptr %30, i32 0, i32 3
  %32 = load ptr, ptr %31, align 8
  %33 = icmp ne ptr %32, null
  br i1 %33, label %34, label %50

34:                                               ; preds = %27
  %35 = load ptr, ptr %8, align 8
  %36 = getelementptr inbounds nuw %struct.slurmdb_qos_rec_t, ptr %35, i32 0, i32 9
  %37 = load ptr, ptr %36, align 8
  %38 = getelementptr inbounds i64, ptr %37, i64 3
  %39 = load i64, ptr %38, align 8
  %40 = icmp ne i64 %39, -1
  br i1 %40, label %41, label %50

41:                                               ; preds = %34
  %42 = load ptr, ptr %10, align 8
  store i8 1, ptr %42, align 1
  %43 = load ptr, ptr %8, align 8
  %44 = getelementptr inbounds nuw %struct.slurmdb_qos_rec_t, ptr %43, i32 0, i32 47
  %45 = load ptr, ptr %44, align 8
  %46 = getelementptr inbounds nuw %struct.slurmdb_qos_usage_t, ptr %45, i32 0, i32 3
  %47 = load ptr, ptr %46, align 8
  %48 = call ptr @bit_copy(ptr noundef %47)
  %49 = load ptr, ptr %9, align 8
  store ptr %48, ptr %49, align 8
  br label %50

50:                                               ; preds = %41, %34, %27, %23
  %51 = load ptr, ptr %11, align 8
  %52 = load i8, ptr %51, align 1, !range !12, !noundef !13
  %53 = trunc i8 %52 to i1
  br i1 %53, label %96, label %54

54:                                               ; preds = %50
  %55 = load ptr, ptr %8, align 8
  %56 = getelementptr inbounds nuw %struct.slurmdb_qos_rec_t, ptr %55, i32 0, i32 31
  %57 = load ptr, ptr %56, align 8
  %58 = getelementptr inbounds i64, ptr %57, i64 3
  %59 = load i64, ptr %58, align 8
  %60 = icmp ne i64 %59, -1
  br i1 %60, label %61, label %96

61:                                               ; preds = %54
  %62 = load ptr, ptr %11, align 8
  store i8 1, ptr %62, align 1
  %63 = load ptr, ptr %8, align 8
  %64 = getelementptr inbounds nuw %struct.slurmdb_qos_rec_t, ptr %63, i32 0, i32 47
  %65 = load ptr, ptr %64, align 8
  %66 = getelementptr inbounds nuw %struct.slurmdb_qos_usage_t, ptr %65, i32 0, i32 14
  %67 = load ptr, ptr %7, align 8
  %68 = getelementptr inbounds nuw %struct.job_record, ptr %67, i32 0, i32 150
  %69 = load i32, ptr %68, align 8
  %70 = call ptr @acct_policy_get_user_used_limits(ptr noundef %66, i32 noundef %69)
  store ptr %70, ptr %13, align 8
  %71 = load ptr, ptr %13, align 8
  %72 = icmp ne ptr %71, null
  br i1 %72, label %73, label %95

73:                                               ; preds = %61
  %74 = load ptr, ptr %13, align 8
  %75 = getelementptr inbounds nuw %struct.slurmdb_used_limits_t, ptr %74, i32 0, i32 6
  %76 = load ptr, ptr %75, align 8
  %77 = icmp ne ptr %76, null
  br i1 %77, label %78, label %95

78:                                               ; preds = %73
  %79 = load ptr, ptr %9, align 8
  %80 = load ptr, ptr %79, align 8
  %81 = icmp ne ptr %80, null
  br i1 %81, label %82, label %88

82:                                               ; preds = %78
  %83 = load ptr, ptr %9, align 8
  %84 = load ptr, ptr %83, align 8
  %85 = load ptr, ptr %13, align 8
  %86 = getelementptr inbounds nuw %struct.slurmdb_used_limits_t, ptr %85, i32 0, i32 6
  %87 = load ptr, ptr %86, align 8
  call void @bit_or(ptr noundef %84, ptr noundef %87)
  br label %94

88:                                               ; preds = %78
  %89 = load ptr, ptr %13, align 8
  %90 = getelementptr inbounds nuw %struct.slurmdb_used_limits_t, ptr %89, i32 0, i32 6
  %91 = load ptr, ptr %90, align 8
  %92 = call ptr @bit_copy(ptr noundef %91)
  %93 = load ptr, ptr %9, align 8
  store ptr %92, ptr %93, align 8
  br label %94

94:                                               ; preds = %88, %82
  br label %95

95:                                               ; preds = %94, %73, %61
  br label %96

96:                                               ; preds = %95, %54, %50
  %97 = load ptr, ptr %12, align 8
  %98 = load i8, ptr %97, align 1, !range !12, !noundef !13
  %99 = trunc i8 %98 to i1
  br i1 %99, label %149, label %100

100:                                              ; preds = %96
  %101 = load ptr, ptr %7, align 8
  %102 = getelementptr inbounds nuw %struct.job_record, ptr %101, i32 0, i32 11
  %103 = load ptr, ptr %102, align 8
  %104 = icmp ne ptr %103, null
  br i1 %104, label %105, label %149

105:                                              ; preds = %100
  %106 = load ptr, ptr %8, align 8
  %107 = getelementptr inbounds nuw %struct.slurmdb_qos_rec_t, ptr %106, i32 0, i32 25
  %108 = load ptr, ptr %107, align 8
  %109 = getelementptr inbounds i64, ptr %108, i64 3
  %110 = load i64, ptr %109, align 8
  %111 = icmp ne i64 %110, -1
  br i1 %111, label %112, label %149

112:                                              ; preds = %105
  %113 = load ptr, ptr %12, align 8
  store i8 1, ptr %113, align 1
  %114 = load ptr, ptr %8, align 8
  %115 = getelementptr inbounds nuw %struct.slurmdb_qos_rec_t, ptr %114, i32 0, i32 47
  %116 = load ptr, ptr %115, align 8
  %117 = getelementptr inbounds nuw %struct.slurmdb_qos_usage_t, ptr %116, i32 0, i32 1
  %118 = load ptr, ptr %7, align 8
  %119 = getelementptr inbounds nuw %struct.job_record, ptr %118, i32 0, i32 11
  %120 = load ptr, ptr %119, align 8
  %121 = getelementptr inbounds nuw %struct.slurmdb_assoc_rec, ptr %120, i32 0, i32 1
  %122 = load ptr, ptr %121, align 8
  %123 = call ptr @acct_policy_get_acct_used_limits(ptr noundef %117, ptr noundef %122)
  store ptr %123, ptr %13, align 8
  %124 = load ptr, ptr %13, align 8
  %125 = icmp ne ptr %124, null
  br i1 %125, label %126, label %148

126:                                              ; preds = %112
  %127 = load ptr, ptr %13, align 8
  %128 = getelementptr inbounds nuw %struct.slurmdb_used_limits_t, ptr %127, i32 0, i32 6
  %129 = load ptr, ptr %128, align 8
  %130 = icmp ne ptr %129, null
  br i1 %130, label %131, label %148

131:                                              ; preds = %126
  %132 = load ptr, ptr %9, align 8
  %133 = load ptr, ptr %132, align 8
  %134 = icmp ne ptr %133, null
  br i1 %134, label %135, label %141

135:                                              ; preds = %131
  %136 = load ptr, ptr %9, align 8
  %137 = load ptr, ptr %136, align 8
  %138 = load ptr, ptr %13, align 8
  %139 = getelementptr inbounds nuw %struct.slurmdb_used_limits_t, ptr %138, i32 0, i32 6
  %140 = load ptr, ptr %139, align 8
  call void @bit_or(ptr noundef %137, ptr noundef %140)
  br label %147

141:                                              ; preds = %131
  %142 = load ptr, ptr %13, align 8
  %143 = getelementptr inbounds nuw %struct.slurmdb_used_limits_t, ptr %142, i32 0, i32 6
  %144 = load ptr, ptr %143, align 8
  %145 = call ptr @bit_copy(ptr noundef %144)
  %146 = load ptr, ptr %9, align 8
  store ptr %145, ptr %146, align 8
  br label %147

147:                                              ; preds = %141, %135
  br label %148

148:                                              ; preds = %147, %126, %112
  br label %149

149:                                              ; preds = %148, %105, %100, %96
  store i32 0, ptr %14, align 4
  br label %150

150:                                              ; preds = %149, %22
  call void @llvm.lifetime.end.p0(i64 8, ptr %13) #8
  %151 = load i32, ptr %14, align 4
  switch i32 %151, label %153 [
    i32 0, label %152
    i32 1, label %152
  ]

152:                                              ; preds = %150, %150
  ret void

153:                                              ; preds = %150
  unreachable
}