; Function Attrs: nounwind uwtable
define internal fastcc void @_find_qos_grp_node_bitmap(ptr noundef readonly captures(none) %0, ptr noundef readonly captures(address_is_null) %1, ptr noundef nonnull captures(none) %2, ptr noundef nonnull captures(none) %3, ptr noundef nonnull captures(none) %4, ptr noundef nonnull captures(none) %5) unnamed_addr #0 {
  %.not = icmp eq ptr %1, null
  br i1 %.not, label %74, label %7

7:                                                ; preds = %6
  %8 = getelementptr inbounds nuw i8, ptr %1, i64 312
  %9 = load ptr, ptr %8, align 8
  %.not40 = icmp eq ptr %9, null
  br i1 %.not40, label %74, label %10

10:                                               ; preds = %7
  %11 = load i8, ptr %3, align 1, !range !12, !noundef !13
  %12 = trunc nuw i8 %11 to i1
  br i1 %12, label %26, label %13

13:                                               ; preds = %10
  %14 = getelementptr inbounds nuw i8, ptr %9, i64 24
  %15 = load ptr, ptr %14, align 8
  %.not41 = icmp eq ptr %15, null
  br i1 %.not41, label %26, label %16

16:                                               ; preds = %13
  %17 = getelementptr inbounds nuw i8, ptr %1, i64 48
  %18 = load ptr, ptr %17, align 8
  %19 = getelementptr inbounds nuw i8, ptr %18, i64 24
  %20 = load i64, ptr %19, align 8
  %.not42 = icmp eq i64 %20, -1
  br i1 %.not42, label %26, label %21

21:                                               ; preds = %16
  store i8 1, ptr %3, align 1
  %22 = load ptr, ptr %8, align 8
  %23 = getelementptr inbounds nuw i8, ptr %22, i64 24
  %24 = load ptr, ptr %23, align 8
  %25 = tail call ptr @bit_copy(ptr noundef %24) #14
  store ptr %25, ptr %2, align 8
  br label %26

26:                                               ; preds = %21, %16, %13, %10
  %27 = load i8, ptr %4, align 1, !range !12, !noundef !13
  %28 = trunc nuw i8 %27 to i1
  br i1 %28, label %48, label %29

29:                                               ; preds = %26
  %30 = getelementptr inbounds nuw i8, ptr %1, i64 200
  %31 = load ptr, ptr %30, align 8
  %32 = getelementptr inbounds nuw i8, ptr %31, i64 24
  %33 = load i64, ptr %32, align 8
  %.not43 = icmp eq i64 %33, -1
  br i1 %.not43, label %48, label %34

34:                                               ; preds = %29
  store i8 1, ptr %4, align 1
  %35 = load ptr, ptr %8, align 8
  %36 = getelementptr inbounds nuw i8, ptr %35, i64 120
  %37 = getelementptr inbounds nuw i8, ptr %0, i64 1096
  %38 = load i32, ptr %37, align 8
  %39 = tail call ptr @acct_policy_get_user_used_limits(ptr noundef nonnull %36, i32 noundef %38) #14
  %.not44 = icmp eq ptr %39, null
  br i1 %.not44, label %48, label %40

40:                                               ; preds = %34
  %41 = getelementptr inbounds nuw i8, ptr %39, i64 40
  %42 = load ptr, ptr %41, align 8
  %.not45 = icmp eq ptr %42, null
  br i1 %.not45, label %48, label %43

43:                                               ; preds = %40
  %44 = load ptr, ptr %2, align 8
  %.not46 = icmp eq ptr %44, null
  br i1 %.not46, label %46, label %45

45:                                               ; preds = %43
  tail call void @bit_or(ptr noundef nonnull %44, ptr noundef nonnull %42) #14
  br label %48

46:                                               ; preds = %43
  %47 = tail call ptr @bit_copy(ptr noundef nonnull %42) #14
  store ptr %47, ptr %2, align 8
  br label %48

48:                                               ; preds = %34, %40, %46, %45, %29, %26
  %49 = load i8, ptr %5, align 1, !range !12, !noundef !13
  %50 = trunc nuw i8 %49 to i1
  br i1 %50, label %74, label %51

51:                                               ; preds = %48
  %52 = getelementptr inbounds nuw i8, ptr %0, i64 72
  %53 = load ptr, ptr %52, align 8
  %.not47 = icmp eq ptr %53, null
  br i1 %.not47, label %74, label %54

54:                                               ; preds = %51
  %55 = getelementptr inbounds nuw i8, ptr %1, i64 152
  %56 = load ptr, ptr %55, align 8
  %57 = getelementptr inbounds nuw i8, ptr %56, i64 24
  %58 = load i64, ptr %57, align 8
  %.not48 = icmp eq i64 %58, -1
  br i1 %.not48, label %74, label %59

59:                                               ; preds = %54
  store i8 1, ptr %5, align 1
  %60 = load ptr, ptr %8, align 8
  %61 = getelementptr inbounds nuw i8, ptr %60, i64 8
  %62 = load ptr, ptr %52, align 8
  %63 = getelementptr inbounds nuw i8, ptr %62, i64 8
  %64 = load ptr, ptr %63, align 8
  %65 = tail call ptr @acct_policy_get_acct_used_limits(ptr noundef nonnull %61, ptr noundef %64) #14
  %.not49 = icmp eq ptr %65, null
  br i1 %.not49, label %74, label %66

66:                                               ; preds = %59
  %67 = getelementptr inbounds nuw i8, ptr %65, i64 40
  %68 = load ptr, ptr %67, align 8
  %.not50 = icmp eq ptr %68, null
  br i1 %.not50, label %74, label %69

69:                                               ; preds = %66
  %70 = load ptr, ptr %2, align 8
  %.not51 = icmp eq ptr %70, null
  br i1 %.not51, label %72, label %71

71:                                               ; preds = %69
  tail call void @bit_or(ptr noundef nonnull %70, ptr noundef nonnull %68) #14
  br label %74

72:                                               ; preds = %69
  %73 = tail call ptr @bit_copy(ptr noundef nonnull %68) #14
  store ptr %73, ptr %2, align 8
  br label %74

74:                                               ; preds = %48, %51, %54, %71, %72, %66, %59, %6, %7
  ret void
}